; Function Attrs: nounwind uwtable
define i32 @Cec_ManPatComputePattern_rec(ptr noundef %0, ptr noundef %1, ptr noundef %2) local_unnamed_addr #0 {
  %4 = getelementptr inbounds nuw i8, ptr %1, i64 616
  %5 = load ptr, ptr %4, align 8, !tbaa !3
  %6 = getelementptr i8, ptr %1, i64 32
  %.val.i = load ptr, ptr %6, align 8, !tbaa !28
  %7 = ptrtoint ptr %2 to i64
  %8 = ptrtoint ptr %.val.i to i64
  %9 = sub i64 %7, %8
  %10 = sdiv exact i64 %9, 12
  %sext.i = shl i64 %10, 32
  %11 = ashr exact i64 %sext.i, 30
  %12 = getelementptr inbounds i8, ptr %5, i64 %11
  %13 = load i32, ptr %12, align 4, !tbaa !29
  %14 = getelementptr inbounds nuw i8, ptr %1, i64 176
  %15 = load i32, ptr %14, align 8, !tbaa !30
  %.not = icmp eq i32 %13, %15
  br i1 %.not, label %common.ret, label %16

16:                                               ; preds = %3
  store i32 %15, ptr %12, align 4, !tbaa !29
  %.val = load i64, ptr %2, align 4
  %17 = and i64 %.val, 2684354559
  %narrow.i.not = icmp eq i64 %17, 2684354559
  br i1 %narrow.i.not, label %18, label %26

18:                                               ; preds = %16
  %19 = tail call i32 @Cec_ObjSatVarValue(ptr noundef %0, ptr noundef nonnull %2) #18
  %20 = load i64, ptr %2, align 4
  %21 = and i32 %19, 1
  %22 = zext nneg i32 %21 to i64
  %23 = shl nuw nsw i64 %22, 62
  br label %common.ret.sink.split

common.ret.sink.split:                            ; preds = %26, %18
  %.sink = phi i64 [ %20, %18 ], [ %38, %26 ]
  %.sink27 = phi i64 [ %23, %18 ], [ %56, %26 ]
  %common.ret.op.ph = phi i32 [ 1, %18 ], [ %37, %26 ]
  %24 = and i64 %.sink, -4611686018427387905
  %25 = or disjoint i64 %.sink27, %24
  store i64 %25, ptr %2, align 4
  br label %common.ret

common.ret:                                       ; preds = %common.ret.sink.split, %3
  %common.ret.op = phi i32 [ 0, %3 ], [ %common.ret.op.ph, %common.ret.sink.split ]
  ret i32 %common.ret.op

26:                                               ; preds = %16
  %27 = and i64 %.val, 536870911
  %28 = sub nsw i64 0, %27
  %29 = getelementptr inbounds %struct.Gia_Obj_t_, ptr %2, i64 %28
  %30 = tail call i32 @Cec_ManPatComputePattern_rec(ptr noundef %0, ptr noundef nonnull %1, ptr noundef nonnull %29)
  %31 = load i64, ptr %2, align 4
  %32 = lshr i64 %31, 32
  %33 = and i64 %32, 536870911
  %34 = sub nsw i64 0, %33
  %35 = getelementptr inbounds %struct.Gia_Obj_t_, ptr %2, i64 %34
  %36 = tail call i32 @Cec_ManPatComputePattern_rec(ptr noundef %0, ptr noundef nonnull %1, ptr noundef nonnull %35)
  %37 = add nsw i32 %36, %30
  %38 = load i64, ptr %2, align 4
  %39 = and i64 %38, 536870911
  %40 = sub nsw i64 0, %39
  %41 = getelementptr inbounds %struct.Gia_Obj_t_, ptr %2, i64 %40
  %42 = load i64, ptr %41, align 4
  %43 = lshr i64 %42, 62
  %44 = lshr i64 %38, 29
  %45 = xor i64 %43, %44
  %46 = lshr i64 %38, 32
  %47 = and i64 %46, 536870911
  %48 = sub nsw i64 0, %47
  %49 = getelementptr inbounds %struct.Gia_Obj_t_, ptr %2, i64 %48
  %50 = load i64, ptr %49, align 4
  %51 = lshr i64 %50, 62
  %52 = lshr i64 %38, 61
  %53 = xor i64 %51, %52
  %54 = and i64 %53, %45
  %55 = shl i64 %54, 62
  %56 = and i64 %55, 4611686018427387904
  br label %common.ret.sink.split
}